; Function Attrs: mustprogress uwtable
define dso_local void @_ZNK16cmLocalGenerator17TraceDependenciesEv(ptr nocapture noundef nonnull readonly align 8 dereferenceable(824) %0) local_unnamed_addr #3 align 2 {
  %2 = getelementptr inbounds i8, ptr %0, i64 328
  %3 = load ptr, ptr %2, align 8
  %4 = getelementptr inbounds i8, ptr %0, i64 336
  %5 = load ptr, ptr %4, align 8
  %.not9 = icmp eq ptr %3, %5
  br i1 %.not9, label %._crit_edge, label %.lr.ph

.lr.ph:                                           ; preds = %1, %10
  %.sroa.06.010 = phi ptr [ %11, %10 ], [ %3, %1 ]
  %6 = load ptr, ptr %.sroa.06.010, align 8
  %7 = tail call noundef zeroext i1 @_ZNK17cmGeneratorTarget15IsInBuildSystemEv(ptr noundef nonnull align 8 dereferenceable(2728) %6)
  br i1 %7, label %8, label %10

8:                                                ; preds = %.lr.ph
  %9 = load ptr, ptr %.sroa.06.010, align 8
  tail call void @_ZN17cmGeneratorTarget17TraceDependenciesEv(ptr noundef nonnull align 8 dereferenceable(2728) %9)
  br label %10

10:                                               ; preds = %.lr.ph, %8
  %11 = getelementptr inbounds i8, ptr %.sroa.06.010, i64 8
  %.not = icmp eq ptr %11, %5
  br i1 %.not, label %._crit_edge, label %.lr.ph

._crit_edge:                                      ; preds = %10, %1
  ret void
}